target datalayout = "e-m:e-p270:32:32-p271:32:32-p272:64:64-i64:64-i128:128-f80:128-n8:16:32:64-S128"
target triple = "x86_64-pc-linux-gnu"

%class.anon = type { i8 }
%"class.gmx::ReferenceTemperatureManager" = type { %"class.std::vector", ptr }
%"class.std::vector" = type { %"struct.std::_Vector_base" }
%"struct.std::_Vector_base" = type { %"struct.std::_Vector_base<std::function<void (gmx::ArrayRef<const float>, gmx::ReferenceTemperatureChangeAlgorithm)>, std::allocator<std::function<void (gmx::ArrayRef<const float>, gmx::ReferenceTemperatureChangeAlgorithm)>>>::_Vector_impl" }
%"struct.std::_Vector_base<std::function<void (gmx::ArrayRef<const float>, gmx::ReferenceTemperatureChangeAlgorithm)>, std::allocator<std::function<void (gmx::ArrayRef<const float>, gmx::ReferenceTemperatureChangeAlgorithm)>>>::_Vector_impl" = type { %"struct.std::_Vector_base<std::function<void (gmx::ArrayRef<const float>, gmx::ReferenceTemperatureChangeAlgorithm)>, std::allocator<std::function<void (gmx::ArrayRef<const float>, gmx::ReferenceTemperatureChangeAlgorithm)>>>::_Vector_impl_data" }
%"struct.std::_Vector_base<std::function<void (gmx::ArrayRef<const float>, gmx::ReferenceTemperatureChangeAlgorithm)>, std::allocator<std::function<void (gmx::ArrayRef<const float>, gmx::ReferenceTemperatureChangeAlgorithm)>>>::_Vector_impl_data" = type { ptr, ptr, ptr }

@.str = private unnamed_addr constant [9 x i8] c"ekindata\00", align 1
@.str.1 = private unnamed_addr constant [29 x i8] c"Need a valid ekindata object\00", align 1
@"__PRETTY_FUNCTION__._ZZN3gmx27ReferenceTemperatureManagerC1EP14gmx_ekindata_tENK3$_0clEv" = private unnamed_addr constant [124 x i8] c"auto gmx::ReferenceTemperatureManager::ReferenceTemperatureManager(gmx_ekindata_t *)::(anonymous class)::operator()() const\00", align 1
@.str.2 = private unnamed_addr constant [154 x i8] c"generated/home/dtcxzyw/WorkSpace/Projects/compilers/llvm-opt-benchmark/bench/gromacs/gromacs/src/gromacs/modularsimulator/referencetemperaturemanager.cpp\00", align 1

; Function Attrs: mustprogress nounwind uwtable
define linkonce_odr void @_ZNSt15__new_allocatorISt8functionIFvN3gmx8ArrayRefIKfEENS1_35ReferenceTemperatureChangeAlgorithmEEEEC2Ev(ptr noundef nonnull align 1 dereferenceable(1) %0) unnamed_addr #1 comdat align 2 {
  %2 = alloca ptr, align 8
  store ptr %0, ptr %2, align 8, !tbaa !32
  ret void
}

; Function Attrs: mustprogress nounwind uwtable
define linkonce_odr void @_ZNSt12_Vector_baseISt8functionIFvN3gmx8ArrayRefIKfEENS1_35ReferenceTemperatureChangeAlgorithmEEESaIS7_EE17_Vector_impl_dataC2Ev(ptr noundef nonnull align 8 dereferenceable(24) %0) unnamed_addr #1 comdat align 2 {
  %2 = alloca ptr, align 8
  store ptr %0, ptr %2, align 8, !tbaa !29
  %3 = load ptr, ptr %2, align 8
  %4 = getelementptr inbounds nuw %"struct.std::_Vector_base<std::function<void (gmx::ArrayRef<const float>, gmx::ReferenceTemperatureChangeAlgorithm)>, std::allocator<std::function<void (gmx::ArrayRef<const float>, gmx::ReferenceTemperatureChangeAlgorithm)>>>::_Vector_impl_data", ptr %3, i32 0, i32 0
  store ptr null, ptr %4, align 8, !tbaa !21
  %5 = getelementptr inbounds nuw %"struct.std::_Vector_base<std::function<void (gmx::ArrayRef<const float>, gmx::ReferenceTemperatureChangeAlgorithm)>, std::allocator<std::function<void (gmx::ArrayRef<const float>, gmx::ReferenceTemperatureChangeAlgorithm)>>>::_Vector_impl_data", ptr %3, i32 0, i32 1
  store ptr null, ptr %5, align 8, !tbaa !22
  %6 = getelementptr inbounds nuw %"struct.std::_Vector_base<std::function<void (gmx::ArrayRef<const float>, gmx::ReferenceTemperatureChangeAlgorithm)>, std::allocator<std::function<void (gmx::ArrayRef<const float>, gmx::ReferenceTemperatureChangeAlgorithm)>>>::_Vector_impl_data", ptr %3, i32 0, i32 2
  store ptr null, ptr %6, align 8, !tbaa !31
  ret void
}

; Function Attrs: mustprogress nounwind uwtable
define linkonce_odr void @_ZNSaISt8functionIFvN3gmx8ArrayRefIKfEENS0_35ReferenceTemperatureChangeAlgorithmEEEEC2Ev(ptr noundef nonnull align 1 dereferenceable(1) %0) unnamed_addr #1 comdat align 2 {
  %2 = alloca ptr, align 8
  store ptr %0, ptr %2, align 8, !tbaa !27
  %3 = load ptr, ptr %2, align 8
  call void @_ZNSt15__new_allocatorISt8functionIFvN3gmx8ArrayRefIKfEENS1_35ReferenceTemperatureChangeAlgorithmEEEEC2Ev(ptr noundef nonnull align 1 dereferenceable(1) %3) #12
  ret void
}

; Function Attrs: mustprogress nounwind uwtable
define linkonce_odr void @_ZNSt12_Vector_baseISt8functionIFvN3gmx8ArrayRefIKfEENS1_35ReferenceTemperatureChangeAlgorithmEEESaIS7_EE12_Vector_implC2Ev(ptr noundef nonnull align 8 dereferenceable(24) %0) unnamed_addr #1 comdat align 2 {
  %2 = alloca ptr, align 8
  store ptr %0, ptr %2, align 8, !tbaa !25
  %3 = load ptr, ptr %2, align 8
  call void @_ZNSaISt8functionIFvN3gmx8ArrayRefIKfEENS0_35ReferenceTemperatureChangeAlgorithmEEEEC2Ev(ptr noundef nonnull align 1 dereferenceable(1) %3) #12
  call void @_ZNSt12_Vector_baseISt8functionIFvN3gmx8ArrayRefIKfEENS1_35ReferenceTemperatureChangeAlgorithmEEESaIS7_EE17_Vector_impl_dataC2Ev(ptr noundef nonnull align 8 dereferenceable(24) %3) #12
  ret void
}

; Function Attrs: mustprogress nounwind uwtable
define linkonce_odr void @_ZNSt12_Vector_baseISt8functionIFvN3gmx8ArrayRefIKfEENS1_35ReferenceTemperatureChangeAlgorithmEEESaIS7_EEC2Ev(ptr noundef nonnull align 8 dereferenceable(24) %0) unnamed_addr #1 comdat align 2 {
  %2 = alloca ptr, align 8
  store ptr %0, ptr %2, align 8, !tbaa !23
  %3 = load ptr, ptr %2, align 8
  %4 = getelementptr inbounds nuw %"struct.std::_Vector_base", ptr %3, i32 0, i32 0
  call void @_ZNSt12_Vector_baseISt8functionIFvN3gmx8ArrayRefIKfEENS1_35ReferenceTemperatureChangeAlgorithmEEESaIS7_EE12_Vector_implC2Ev(ptr noundef nonnull align 8 dereferenceable(24) %4) #12
  ret void
}

; Function Attrs: inlinehint mustprogress uwtable
define internal void @"_ZZN3gmx27ReferenceTemperatureManagerC1EP14gmx_ekindata_tENK3$_0clEv"(ptr noundef nonnull align 1 dereferenceable(1) %0) #3 align 2 {
  %2 = alloca ptr, align 8
  store ptr %0, ptr %2, align 8, !tbaa !20
  call void @_ZN3gmx8internal13assertHandlerEPKcS2_S2_S2_i(ptr noundef @.str, ptr noundef @.str.1, ptr noundef @"__PRETTY_FUNCTION__._ZZN3gmx27ReferenceTemperatureManagerC1EP14gmx_ekindata_tENK3$_0clEv", ptr noundef @.str.2, i32 noundef 58) #13
  unreachable
}

; Function Attrs: mustprogress nounwind uwtable
define linkonce_odr void @_ZNSt6vectorISt8functionIFvN3gmx8ArrayRefIKfEENS1_35ReferenceTemperatureChangeAlgorithmEEESaIS7_EEC2Ev(ptr noundef nonnull align 8 dereferenceable(24) %0) unnamed_addr #1 comdat align 2 {
  %2 = alloca ptr, align 8
  store ptr %0, ptr %2, align 8, !tbaa !18
  %3 = load ptr, ptr %2, align 8
  call void @_ZNSt12_Vector_baseISt8functionIFvN3gmx8ArrayRefIKfEENS1_35ReferenceTemperatureChangeAlgorithmEEESaIS7_EEC2Ev(ptr noundef nonnull align 8 dereferenceable(24) %3) #12
  ret void
}

; Function Attrs: mustprogress uwtable
define void @_ZN3gmx27ReferenceTemperatureManagerC2EP14gmx_ekindata_t(ptr noundef nonnull align 8 dereferenceable(32) %0, ptr noundef %1) unnamed_addr #0 align 2 personality ptr @__gxx_personality_v0 {
  %3 = alloca ptr, align 8
  %4 = alloca ptr, align 8
  %5 = alloca %class.anon, align 1
  %6 = alloca ptr, align 8
  %7 = alloca i32, align 4
  store ptr %0, ptr %3, align 8, !tbaa !4
  store ptr %1, ptr %4, align 8, !tbaa !9
  %8 = load ptr, ptr %3, align 8
  %9 = getelementptr inbounds nuw %"class.gmx::ReferenceTemperatureManager", ptr %8, i32 0, i32 0
  call void @_ZNSt6vectorISt8functionIFvN3gmx8ArrayRefIKfEENS1_35ReferenceTemperatureChangeAlgorithmEEESaIS7_EEC2Ev(ptr noundef nonnull align 8 dereferenceable(24) %9) #12
  %10 = getelementptr inbounds nuw %"class.gmx::ReferenceTemperatureManager", ptr %8, i32 0, i32 1
  %11 = load ptr, ptr %4, align 8, !tbaa !9
  store ptr %11, ptr %10, align 8, !tbaa !11
  %12 = load ptr, ptr %4, align 8, !tbaa !9
  %13 = icmp ne ptr %12, null
  call void @llvm.lifetime.start.p0(i64 1, ptr %5) #12
  br i1 %13, label %14, label %15

14:                                               ; preds = %2
  br label %17

15:                                               ; preds = %2
  invoke void @"_ZZN3gmx27ReferenceTemperatureManagerC1EP14gmx_ekindata_tENK3$_0clEv"(ptr noundef nonnull align 1 dereferenceable(1) %5)
          to label %16 unwind label %18

16:                                               ; preds = %15
  br label %17

17:                                               ; preds = %16, %14
  call void @llvm.lifetime.end.p0(i64 1, ptr %5) #12
  ret void

18:                                               ; preds = %15
  %19 = landingpad { ptr, i32 }
          cleanup
  %20 = extractvalue { ptr, i32 } %19, 0
  store ptr %20, ptr %6, align 8
  %21 = extractvalue { ptr, i32 } %19, 1
  store i32 %21, ptr %7, align 4
  call void @llvm.lifetime.end.p0(i64 1, ptr %5) #12
  call void @_ZNSt6vectorISt8functionIFvN3gmx8ArrayRefIKfEENS1_35ReferenceTemperatureChangeAlgorithmEEESaIS7_EED2Ev(ptr noundef nonnull align 8 dereferenceable(24) %9) #12
  br label %22

22:                                               ; preds = %18
  %23 = load ptr, ptr %6, align 8
  %24 = load i32, ptr %7, align 4
  %25 = insertvalue { ptr, i32 } poison, ptr %23, 0
  %26 = insertvalue { ptr, i32 } %25, i32 %24, 1
  resume { ptr, i32 } %26
}