; Function Attrs: mustprogress uwtable
define void @_ZN3gmx27ReferenceTemperatureManagerC2EP14gmx_ekindata_t(ptr noundef nonnull align 8 dereferenceable(32) initializes((0, 32)) %0, ptr noundef %1) unnamed_addr #0 align 2 personality ptr @__gxx_personality_v0 {
  tail call void @llvm.memset.p0.i64(ptr noundef nonnull align 8 dereferenceable(24) %0, i8 0, i64 24, i1 false)
  %3 = getelementptr inbounds nuw i8, ptr %0, i64 24
  store ptr %1, ptr %3, align 8, !tbaa !4
  %.not = icmp eq ptr %1, null
  br i1 %.not, label %4, label %5

4:                                                ; preds = %2
  invoke void @_ZN3gmx8internal13assertHandlerEPKcS2_S2_S2_i(ptr noundef nonnull @.str, ptr noundef nonnull @.str.1, ptr noundef nonnull @"__PRETTY_FUNCTION__._ZZN3gmx27ReferenceTemperatureManagerC1EP14gmx_ekindata_tENK3$_0clEv", ptr noundef nonnull @.str.2, i32 noundef 58) #13
          to label %.noexc unwind label %6

.noexc:                                           ; preds = %4
  unreachable

5:                                                ; preds = %2
  ret void

6:                                                ; preds = %4
  %7 = landingpad { ptr, i32 }
          cleanup
  tail call void @_ZNSt6vectorISt8functionIFvN3gmx8ArrayRefIKfEENS1_35ReferenceTemperatureChangeAlgorithmEEESaIS7_EED2Ev(ptr noundef nonnull align 8 dereferenceable(24) %0) #14
  resume { ptr, i32 } %7
}